target datalayout = "e-m:e-p270:32:32-p271:32:32-p272:64:64-i64:64-i128:128-f80:128-n8:16:32:64-S128"
target triple = "x86_64-pc-linux-gnu"

%"class.std::__cxx11::basic_string" = type { %"struct.std::__cxx11::basic_string<char>::_Alloc_hider", i64, %union.anon }
%"struct.std::__cxx11::basic_string<char>::_Alloc_hider" = type { ptr }
%union.anon = type { i64, [8 x i8] }
%"class.std::vector.3" = type { %"struct.std::_Vector_base.4" }
%"struct.std::_Vector_base.4" = type { %"struct.std::_Vector_base<int, std::allocator<int>>::_Vector_impl" }
%"struct.std::_Vector_base<int, std::allocator<int>>::_Vector_impl" = type { %"struct.std::_Vector_base<int, std::allocator<int>>::_Vector_impl_data" }
%"struct.std::_Vector_base<int, std::allocator<int>>::_Vector_impl_data" = type { ptr, ptr, ptr }
%class.colvardeps = type { ptr, %"class.std::__cxx11::basic_string", i32, %"class.std::vector.54", %"class.std::vector.59", %"class.std::vector.59" }
%"class.std::vector.54" = type { %"struct.std::_Vector_base.55" }
%"struct.std::_Vector_base.55" = type { %"struct.std::_Vector_base<colvardeps::feature_state, std::allocator<colvardeps::feature_state>>::_Vector_impl" }
%"struct.std::_Vector_base<colvardeps::feature_state, std::allocator<colvardeps::feature_state>>::_Vector_impl" = type { %"struct.std::_Vector_base<colvardeps::feature_state, std::allocator<colvardeps::feature_state>>::_Vector_impl_data" }
%"struct.std::_Vector_base<colvardeps::feature_state, std::allocator<colvardeps::feature_state>>::_Vector_impl_data" = type { ptr, ptr, ptr }
%"class.std::vector.59" = type { %"struct.std::_Vector_base.60" }
%"struct.std::_Vector_base.60" = type { %"struct.std::_Vector_base<colvardeps *, std::allocator<colvardeps *>>::_Vector_impl" }
%"struct.std::_Vector_base<colvardeps *, std::allocator<colvardeps *>>::_Vector_impl" = type { %"struct.std::_Vector_base<colvardeps *, std::allocator<colvardeps *>>::_Vector_impl_data" }
%"struct.std::_Vector_base<colvardeps *, std::allocator<colvardeps *>>::_Vector_impl_data" = type { ptr, ptr, ptr }
%"class.colvarmodule::rvector" = type { double, double, double }
%"class.colvarmodule::atom_group" = type { %class.colvarparse, %class.colvardeps, %"class.std::__cxx11::basic_string", %"class.std::__cxx11::basic_string", %"class.std::vector.64", %"class.std::vector.3", %"class.std::vector.3", %"class.std::vector.3", %"class.colvarmodule::rvector", i32, i8, %"class.colvarmodule::rotation", ptr, i8, %"class.std::vector.18", %"class.colvarmodule::rvector", ptr, double, double, i8, %"class.colvarmodule::rvector", %"class.colvarmodule::rvector", %"class.colvarmodule::rvector", %"class.colvarmodule::rvector", %"class.colvarmodule::rvector", %"class.std::vector.18" }
%class.colvarparse = type { %class.colvarparams, %"class.std::__cxx11::basic_string", %"class.std::__cxx11::basic_string", %"class.std::__cxx11::list", %"class.std::map.44", %"class.std::__cxx11::list.49", %"class.std::__cxx11::list.49", %"class.std::__cxx11::basic_string" }
%class.colvarparams = type { ptr, %"class.std::map.31", %"class.std::map.36" }
%"class.std::map.31" = type { %"class.std::_Rb_tree.32" }
%"class.std::_Rb_tree.32" = type { %"struct.std::_Rb_tree<std::__cxx11::basic_string<char>, std::pair<const std::__cxx11::basic_string<char>, const void *>, std::_Select1st<std::pair<const std::__cxx11::basic_string<char>, const void *>>, std::less<std::__cxx11::basic_string<char>>>::_Rb_tree_impl" }
%"struct.std::_Rb_tree<std::__cxx11::basic_string<char>, std::pair<const std::__cxx11::basic_string<char>, const void *>, std::_Select1st<std::pair<const std::__cxx11::basic_string<char>, const void *>>, std::less<std::__cxx11::basic_string<char>>>::_Rb_tree_impl" = type { %"struct.std::_Rb_tree_key_compare", %"struct.std::_Rb_tree_header" }
%"struct.std::_Rb_tree_key_compare" = type { %"struct.std::less" }
%"struct.std::less" = type { i8 }
%"struct.std::_Rb_tree_header" = type { %"struct.std::_Rb_tree_node_base", i64 }
%"struct.std::_Rb_tree_node_base" = type { i32, ptr, ptr, ptr }
%"class.std::map.36" = type { %"class.std::_Rb_tree.37" }
%"class.std::_Rb_tree.37" = type { %"struct.std::_Rb_tree<std::__cxx11::basic_string<char>, std::pair<const std::__cxx11::basic_string<char>, const colvarvalue *>, std::_Select1st<std::pair<const std::__cxx11::basic_string<char>, const colvarvalue *>>, std::less<std::__cxx11::basic_string<char>>>::_Rb_tree_impl" }
%"struct.std::_Rb_tree<std::__cxx11::basic_string<char>, std::pair<const std::__cxx11::basic_string<char>, const colvarvalue *>, std::_Select1st<std::pair<const std::__cxx11::basic_string<char>, const colvarvalue *>>, std::less<std::__cxx11::basic_string<char>>>::_Rb_tree_impl" = type { %"struct.std::_Rb_tree_key_compare", %"struct.std::_Rb_tree_header" }
%"class.std::__cxx11::list" = type { %"class.std::__cxx11::_List_base" }
%"class.std::__cxx11::_List_base" = type { %"struct.std::__cxx11::_List_base<std::__cxx11::basic_string<char>, std::allocator<std::__cxx11::basic_string<char>>>::_List_impl" }
%"struct.std::__cxx11::_List_base<std::__cxx11::basic_string<char>, std::allocator<std::__cxx11::basic_string<char>>>::_List_impl" = type { %"struct.std::__detail::_List_node_header" }
%"struct.std::__detail::_List_node_header" = type { %"struct.std::__detail::_List_node_base", i64 }
%"struct.std::__detail::_List_node_base" = type { ptr, ptr }
%"class.std::map.44" = type { %"class.std::_Rb_tree.45" }
%"class.std::_Rb_tree.45" = type { %"struct.std::_Rb_tree<std::__cxx11::basic_string<char>, std::pair<const std::__cxx11::basic_string<char>, colvarparse::key_set_mode>, std::_Select1st<std::pair<const std::__cxx11::basic_string<char>, colvarparse::key_set_mode>>, std::less<std::__cxx11::basic_string<char>>>::_Rb_tree_impl" }
%"struct.std::_Rb_tree<std::__cxx11::basic_string<char>, std::pair<const std::__cxx11::basic_string<char>, colvarparse::key_set_mode>, std::_Select1st<std::pair<const std::__cxx11::basic_string<char>, colvarparse::key_set_mode>>, std::less<std::__cxx11::basic_string<char>>>::_Rb_tree_impl" = type { %"struct.std::_Rb_tree_key_compare", %"struct.std::_Rb_tree_header" }
%"class.std::__cxx11::list.49" = type { %"class.std::__cxx11::_List_base.50" }
%"class.std::__cxx11::_List_base.50" = type { %"struct.std::__cxx11::_List_base<unsigned long, std::allocator<unsigned long>>::_List_impl" }
%"struct.std::__cxx11::_List_base<unsigned long, std::allocator<unsigned long>>::_List_impl" = type { %"struct.std::__detail::_List_node_header" }
%"class.std::vector.64" = type { %"struct.std::_Vector_base.65" }
%"struct.std::_Vector_base.65" = type { %"struct.std::_Vector_base<colvarmodule::atom, std::allocator<colvarmodule::atom>>::_Vector_impl" }
%"struct.std::_Vector_base<colvarmodule::atom, std::allocator<colvarmodule::atom>>::_Vector_impl" = type { %"struct.std::_Vector_base<colvarmodule::atom, std::allocator<colvarmodule::atom>>::_Vector_impl_data" }
%"struct.std::_Vector_base<colvarmodule::atom, std::allocator<colvarmodule::atom>>::_Vector_impl_data" = type { ptr, ptr, ptr }
%"class.colvarmodule::rotation" = type { %"class.colvarmodule::rmatrix", [4 x [4 x double]], [4 x double], [4 x [4 x double]], [4 x [4 x double]], i8, %"class.colvarmodule::quaternion", %"class.colvarmodule::quaternion", ptr }
%"class.colvarmodule::rmatrix" = type { double, double, double, double, double, double, double, double, double }
%"class.colvarmodule::quaternion" = type { double, double, double, double }
%"class.std::vector.18" = type { %"struct.std::_Vector_base.19" }
%"struct.std::_Vector_base.19" = type { %"struct.std::_Vector_base<colvarmodule::rvector, std::allocator<colvarmodule::rvector>>::_Vector_impl" }
%"struct.std::_Vector_base<colvarmodule::rvector, std::allocator<colvarmodule::rvector>>::_Vector_impl" = type { %"struct.std::_Vector_base<colvarmodule::rvector, std::allocator<colvarmodule::rvector>>::_Vector_impl_data" }
%"struct.std::_Vector_base<colvarmodule::rvector, std::allocator<colvarmodule::rvector>>::_Vector_impl_data" = type { ptr, ptr, ptr }

@.str.7 = private unnamed_addr constant [13 x i8] c"\22 and name \22\00", align 1
@.str.9 = private unnamed_addr constant [55 x i8] c"Error: setting dummy position for group with keyword \22\00", align 1
@.str.10 = private unnamed_addr constant [25 x i8] c"\22, but it is not dummy.\0A\00", align 1

; Function Attrs: mustprogress uwtable
define linkonce_odr void @_ZStplIcSt11char_traitsIcESaIcEENSt7__cxx1112basic_stringIT_T0_T1_EEOS8_RKS8_(ptr dead_on_unwind noalias writable sret(%"class.std::__cxx11::basic_string") align 8 %0, ptr noundef nonnull align 8 dereferenceable(32) %1, ptr noundef nonnull align 8 dereferenceable(32) %2) #2 comdat {
  %4 = alloca ptr, align 8
  %5 = alloca ptr, align 8
  %6 = alloca ptr, align 8
  store ptr %0, ptr %4, align 8
  store ptr %1, ptr %5, align 8
  store ptr %2, ptr %6, align 8
  %7 = load ptr, ptr %5, align 8
  %8 = load ptr, ptr %6, align 8
  %9 = call noundef nonnull align 8 dereferenceable(32) ptr @_ZNSt7__cxx1112basic_stringIcSt11char_traitsIcESaIcEE6appendERKS4_(ptr noundef nonnull align 8 dereferenceable(32) %7, ptr noundef nonnull align 8 dereferenceable(32) %8)
  call void @_ZNSt7__cxx1112basic_stringIcSt11char_traitsIcESaIcEEC1EOS4_(ptr noundef nonnull align 8 dereferenceable(32) %0, ptr noundef nonnull align 8 dereferenceable(32) %9) #15
  ret void
}

; Function Attrs: mustprogress uwtable
define linkonce_odr void @_ZStplIcSt11char_traitsIcESaIcEENSt7__cxx1112basic_stringIT_T0_T1_EEOS8_PKS5_(ptr dead_on_unwind noalias writable sret(%"class.std::__cxx11::basic_string") align 8 %0, ptr noundef nonnull align 8 dereferenceable(32) %1, ptr noundef %2) #2 comdat {
  %4 = alloca ptr, align 8
  %5 = alloca ptr, align 8
  %6 = alloca ptr, align 8
  store ptr %0, ptr %4, align 8
  store ptr %1, ptr %5, align 8
  store ptr %2, ptr %6, align 8
  %7 = load ptr, ptr %5, align 8
  %8 = load ptr, ptr %6, align 8
  %9 = call noundef nonnull align 8 dereferenceable(32) ptr @_ZNSt7__cxx1112basic_stringIcSt11char_traitsIcESaIcEE6appendEPKc(ptr noundef nonnull align 8 dereferenceable(32) %7, ptr noundef %8)
  call void @_ZNSt7__cxx1112basic_stringIcSt11char_traitsIcESaIcEEC1EOS4_(ptr noundef nonnull align 8 dereferenceable(32) %0, ptr noundef nonnull align 8 dereferenceable(32) %9) #15
  ret void
}

; Function Attrs: mustprogress uwtable
define noundef i32 @_ZN12colvarmodule10atom_group13set_dummy_posERKNS_7rvectorE(ptr noundef nonnull align 8 dereferenceable(1440) %0, ptr noundef nonnull align 8 dereferenceable(24) %1) #2 align 2 personality ptr @__gxx_personality_v0 {
  %3 = alloca i32, align 4
  %4 = alloca ptr, align 8
  %5 = alloca ptr, align 8
  %6 = alloca %"class.std::__cxx11::basic_string", align 8
  %7 = alloca %"class.std::__cxx11::basic_string", align 8
  %8 = alloca %"class.std::__cxx11::basic_string", align 8
  %9 = alloca %"class.std::__cxx11::basic_string", align 8
  %10 = alloca ptr, align 8
  %11 = alloca i32, align 4
  store ptr %0, ptr %4, align 8
  store ptr %1, ptr %5, align 8
  %12 = load ptr, ptr %4, align 8
  %13 = getelementptr inbounds %"class.colvarmodule::atom_group", ptr %12, i32 0, i32 10
  %14 = load i8, ptr %13, align 4
  %15 = trunc i8 %14 to i1
  br i1 %15, label %16, label %19

16:                                               ; preds = %2
  %17 = load ptr, ptr %5, align 8
  %18 = getelementptr inbounds %"class.colvarmodule::atom_group", ptr %12, i32 0, i32 8
  call void @llvm.memcpy.p0.p0.i64(ptr align 8 %18, ptr align 8 %17, i64 24, i1 false)
  br label %46

19:                                               ; preds = %2
  %20 = getelementptr inbounds %"class.colvarmodule::atom_group", ptr %12, i32 0, i32 3
  call void @_ZStplIcSt11char_traitsIcESaIcEENSt7__cxx1112basic_stringIT_T0_T1_EEPKS5_RKS8_(ptr dead_on_unwind writable sret(%"class.std::__cxx11::basic_string") align 8 %9, ptr noundef @.str.9, ptr noundef nonnull align 8 dereferenceable(32) %20)
  invoke void @_ZStplIcSt11char_traitsIcESaIcEENSt7__cxx1112basic_stringIT_T0_T1_EEOS8_PKS5_(ptr dead_on_unwind writable sret(%"class.std::__cxx11::basic_string") align 8 %8, ptr noundef nonnull align 8 dereferenceable(32) %9, ptr noundef @.str.7)
          to label %21 unwind label %27

21:                                               ; preds = %19
  %22 = getelementptr inbounds %"class.colvarmodule::atom_group", ptr %12, i32 0, i32 2
  invoke void @_ZStplIcSt11char_traitsIcESaIcEENSt7__cxx1112basic_stringIT_T0_T1_EEOS8_RKS8_(ptr dead_on_unwind writable sret(%"class.std::__cxx11::basic_string") align 8 %7, ptr noundef nonnull align 8 dereferenceable(32) %8, ptr noundef nonnull align 8 dereferenceable(32) %22)
          to label %23 unwind label %31

23:                                               ; preds = %21
  invoke void @_ZStplIcSt11char_traitsIcESaIcEENSt7__cxx1112basic_stringIT_T0_T1_EEOS8_PKS5_(ptr dead_on_unwind writable sret(%"class.std::__cxx11::basic_string") align 8 %6, ptr noundef nonnull align 8 dereferenceable(32) %7, ptr noundef @.str.10)
          to label %24 unwind label %35

24:                                               ; preds = %23
  %25 = invoke noundef i32 @_ZN12colvarmodule5errorERKNSt7__cxx1112basic_stringIcSt11char_traitsIcESaIcEEEi(ptr noundef nonnull align 8 dereferenceable(32) %6, i32 noundef 4)
          to label %26 unwind label %39

26:                                               ; preds = %24
  store i32 %25, ptr %3, align 4
  call void @_ZNSt7__cxx1112basic_stringIcSt11char_traitsIcESaIcEED1Ev(ptr noundef nonnull align 8 dereferenceable(32) %6) #15
  call void @_ZNSt7__cxx1112basic_stringIcSt11char_traitsIcESaIcEED1Ev(ptr noundef nonnull align 8 dereferenceable(32) %7) #15
  call void @_ZNSt7__cxx1112basic_stringIcSt11char_traitsIcESaIcEED1Ev(ptr noundef nonnull align 8 dereferenceable(32) %8) #15
  call void @_ZNSt7__cxx1112basic_stringIcSt11char_traitsIcESaIcEED1Ev(ptr noundef nonnull align 8 dereferenceable(32) %9) #15
  br label %47

27:                                               ; preds = %19
  %28 = landingpad { ptr, i32 }
          cleanup
  %29 = extractvalue { ptr, i32 } %28, 0
  store ptr %29, ptr %10, align 8
  %30 = extractvalue { ptr, i32 } %28, 1
  store i32 %30, ptr %11, align 4
  br label %45

31:                                               ; preds = %21
  %32 = landingpad { ptr, i32 }
          cleanup
  %33 = extractvalue { ptr, i32 } %32, 0
  store ptr %33, ptr %10, align 8
  %34 = extractvalue { ptr, i32 } %32, 1
  store i32 %34, ptr %11, align 4
  br label %44

35:                                               ; preds = %23
  %36 = landingpad { ptr, i32 }
          cleanup
  %37 = extractvalue { ptr, i32 } %36, 0
  store ptr %37, ptr %10, align 8
  %38 = extractvalue { ptr, i32 } %36, 1
  store i32 %38, ptr %11, align 4
  br label %43

39:                                               ; preds = %24
  %40 = landingpad { ptr, i32 }
          cleanup
  %41 = extractvalue { ptr, i32 } %40, 0
  store ptr %41, ptr %10, align 8
  %42 = extractvalue { ptr, i32 } %40, 1
  store i32 %42, ptr %11, align 4
  call void @_ZNSt7__cxx1112basic_stringIcSt11char_traitsIcESaIcEED1Ev(ptr noundef nonnull align 8 dereferenceable(32) %6) #15
  br label %43

43:                                               ; preds = %39, %35
  call void @_ZNSt7__cxx1112basic_stringIcSt11char_traitsIcESaIcEED1Ev(ptr noundef nonnull align 8 dereferenceable(32) %7) #15
  br label %44

44:                                               ; preds = %43, %31
  call void @_ZNSt7__cxx1112basic_stringIcSt11char_traitsIcESaIcEED1Ev(ptr noundef nonnull align 8 dereferenceable(32) %8) #15
  br label %45

45:                                               ; preds = %44, %27
  call void @_ZNSt7__cxx1112basic_stringIcSt11char_traitsIcESaIcEED1Ev(ptr noundef nonnull align 8 dereferenceable(32) %9) #15
  br label %49

46:                                               ; preds = %16
  store i32 0, ptr %3, align 4
  br label %47

47:                                               ; preds = %46, %26
  %48 = load i32, ptr %3, align 4
  ret i32 %48

49:                                               ; preds = %45
  %50 = load ptr, ptr %10, align 8
  %51 = load i32, ptr %11, align 4
  %52 = insertvalue { ptr, i32 } poison, ptr %50, 0
  %53 = insertvalue { ptr, i32 } %52, i32 %51, 1
  resume { ptr, i32 } %53
}